target datalayout = "e-m:e-p270:32:32-p271:32:32-p272:64:64-i64:64-i128:128-f80:128-n8:16:32:64-S128"
target triple = "x86_64-pc-linux-gnu"

%struct.event = type { %struct.event_callback, %union.anon.0, i32, i16, i16, ptr, %union.anon.2, %struct.timeval }
%struct.event_callback = type { %struct.anon, i16, i8, i8, %union.anon, ptr }
%struct.anon = type { ptr, ptr }
%union.anon = type { ptr }
%union.anon.0 = type { %struct.anon.1 }
%struct.anon.1 = type { ptr, ptr }
%union.anon.2 = type { %struct.anon.3 }
%struct.anon.3 = type { %struct.anon.4, %struct.timeval }
%struct.anon.4 = type { ptr, ptr }
%struct.timeval = type { i64, i64 }
%struct.evdns_tree = type { ptr }
%struct.evdns_cache = type { %struct.anon.9, ptr, ptr, %struct.event, ptr }
%struct.anon.9 = type { ptr, ptr }

; Function Attrs: nounwind uwtable
define internal i32 @evdns_cache_compare(ptr noundef %0, ptr noundef %1) #0 {
  %3 = alloca ptr, align 8
  %4 = alloca ptr, align 8
  store ptr %0, ptr %3, align 8
  store ptr %1, ptr %4, align 8
  %5 = load ptr, ptr %3, align 8
  %6 = getelementptr inbounds nuw %struct.evdns_cache, ptr %5, i32 0, i32 1
  %7 = load ptr, ptr %6, align 8
  %8 = load ptr, ptr %4, align 8
  %9 = getelementptr inbounds nuw %struct.evdns_cache, ptr %8, i32 0, i32 1
  %10 = load ptr, ptr %9, align 8
  %11 = call i32 @strcasecmp(ptr noundef %7, ptr noundef %10) #12
  ret i32 %11
}

; Function Attrs: nounwind uwtable
define hidden ptr @evdns_tree_SPLAY_INSERT(ptr noundef %0, ptr noundef %1) #0 {
  %3 = alloca ptr, align 8
  %4 = alloca ptr, align 8
  %5 = alloca ptr, align 8
  %6 = alloca i32, align 4
  %7 = alloca i32, align 4
  store ptr %0, ptr %4, align 8
  store ptr %1, ptr %5, align 8
  %8 = load ptr, ptr %4, align 8
  %9 = getelementptr inbounds nuw %struct.evdns_tree, ptr %8, i32 0, i32 0
  %10 = load ptr, ptr %9, align 8
  %11 = icmp eq ptr %10, null
  br i1 %11, label %12, label %19

12:                                               ; preds = %2
  %13 = load ptr, ptr %5, align 8
  %14 = getelementptr inbounds nuw %struct.evdns_cache, ptr %13, i32 0, i32 0
  %15 = getelementptr inbounds nuw %struct.anon.9, ptr %14, i32 0, i32 1
  store ptr null, ptr %15, align 8
  %16 = load ptr, ptr %5, align 8
  %17 = getelementptr inbounds nuw %struct.evdns_cache, ptr %16, i32 0, i32 0
  %18 = getelementptr inbounds nuw %struct.anon.9, ptr %17, i32 0, i32 0
  store ptr null, ptr %18, align 8
  br label %83

19:                                               ; preds = %2
  call void @llvm.lifetime.start.p0(i64 4, ptr %6) #10
  %20 = load ptr, ptr %4, align 8
  %21 = load ptr, ptr %5, align 8
  call void @evdns_tree_SPLAY(ptr noundef %20, ptr noundef %21)
  %22 = load ptr, ptr %5, align 8
  %23 = load ptr, ptr %4, align 8
  %24 = getelementptr inbounds nuw %struct.evdns_tree, ptr %23, i32 0, i32 0
  %25 = load ptr, ptr %24, align 8
  %26 = call i32 @evdns_cache_compare(ptr noundef %22, ptr noundef %25)
  store i32 %26, ptr %6, align 4
  %27 = load i32, ptr %6, align 4
  %28 = icmp slt i32 %27, 0
  br i1 %28, label %29, label %50

29:                                               ; preds = %19
  %30 = load ptr, ptr %4, align 8
  %31 = getelementptr inbounds nuw %struct.evdns_tree, ptr %30, i32 0, i32 0
  %32 = load ptr, ptr %31, align 8
  %33 = getelementptr inbounds nuw %struct.evdns_cache, ptr %32, i32 0, i32 0
  %34 = getelementptr inbounds nuw %struct.anon.9, ptr %33, i32 0, i32 0
  %35 = load ptr, ptr %34, align 8
  %36 = load ptr, ptr %5, align 8
  %37 = getelementptr inbounds nuw %struct.evdns_cache, ptr %36, i32 0, i32 0
  %38 = getelementptr inbounds nuw %struct.anon.9, ptr %37, i32 0, i32 0
  store ptr %35, ptr %38, align 8
  %39 = load ptr, ptr %4, align 8
  %40 = getelementptr inbounds nuw %struct.evdns_tree, ptr %39, i32 0, i32 0
  %41 = load ptr, ptr %40, align 8
  %42 = load ptr, ptr %5, align 8
  %43 = getelementptr inbounds nuw %struct.evdns_cache, ptr %42, i32 0, i32 0
  %44 = getelementptr inbounds nuw %struct.anon.9, ptr %43, i32 0, i32 1
  store ptr %41, ptr %44, align 8
  %45 = load ptr, ptr %4, align 8
  %46 = getelementptr inbounds nuw %struct.evdns_tree, ptr %45, i32 0, i32 0
  %47 = load ptr, ptr %46, align 8
  %48 = getelementptr inbounds nuw %struct.evdns_cache, ptr %47, i32 0, i32 0
  %49 = getelementptr inbounds nuw %struct.anon.9, ptr %48, i32 0, i32 0
  store ptr null, ptr %49, align 8
  br label %79

50:                                               ; preds = %19
  %51 = load i32, ptr %6, align 4
  %52 = icmp sgt i32 %51, 0
  br i1 %52, label %53, label %74

53:                                               ; preds = %50
  %54 = load ptr, ptr %4, align 8
  %55 = getelementptr inbounds nuw %struct.evdns_tree, ptr %54, i32 0, i32 0
  %56 = load ptr, ptr %55, align 8
  %57 = getelementptr inbounds nuw %struct.evdns_cache, ptr %56, i32 0, i32 0
  %58 = getelementptr inbounds nuw %struct.anon.9, ptr %57, i32 0, i32 1
  %59 = load ptr, ptr %58, align 8
  %60 = load ptr, ptr %5, align 8
  %61 = getelementptr inbounds nuw %struct.evdns_cache, ptr %60, i32 0, i32 0
  %62 = getelementptr inbounds nuw %struct.anon.9, ptr %61, i32 0, i32 1
  store ptr %59, ptr %62, align 8
  %63 = load ptr, ptr %4, align 8
  %64 = getelementptr inbounds nuw %struct.evdns_tree, ptr %63, i32 0, i32 0
  %65 = load ptr, ptr %64, align 8
  %66 = load ptr, ptr %5, align 8
  %67 = getelementptr inbounds nuw %struct.evdns_cache, ptr %66, i32 0, i32 0
  %68 = getelementptr inbounds nuw %struct.anon.9, ptr %67, i32 0, i32 0
  store ptr %65, ptr %68, align 8
  %69 = load ptr, ptr %4, align 8
  %70 = getelementptr inbounds nuw %struct.evdns_tree, ptr %69, i32 0, i32 0
  %71 = load ptr, ptr %70, align 8
  %72 = getelementptr inbounds nuw %struct.evdns_cache, ptr %71, i32 0, i32 0
  %73 = getelementptr inbounds nuw %struct.anon.9, ptr %72, i32 0, i32 1
  store ptr null, ptr %73, align 8
  br label %78

74:                                               ; preds = %50
  %75 = load ptr, ptr %4, align 8
  %76 = getelementptr inbounds nuw %struct.evdns_tree, ptr %75, i32 0, i32 0
  %77 = load ptr, ptr %76, align 8
  store ptr %77, ptr %3, align 8
  store i32 1, ptr %7, align 4
  br label %80

78:                                               ; preds = %53
  br label %79

79:                                               ; preds = %78, %29
  store i32 0, ptr %7, align 4
  br label %80

80:                                               ; preds = %79, %74
  call void @llvm.lifetime.end.p0(i64 4, ptr %6) #10
  %81 = load i32, ptr %7, align 4
  switch i32 %81, label %89 [
    i32 0, label %82
    i32 1, label %87
  ]

82:                                               ; preds = %80
  br label %83

83:                                               ; preds = %82, %12
  %84 = load ptr, ptr %5, align 8
  %85 = load ptr, ptr %4, align 8
  %86 = getelementptr inbounds nuw %struct.evdns_tree, ptr %85, i32 0, i32 0
  store ptr %84, ptr %86, align 8
  store ptr null, ptr %3, align 8
  br label %87

87:                                               ; preds = %83, %80
  %88 = load ptr, ptr %3, align 8
  ret ptr %88

89:                                               ; preds = %80
  unreachable
}