; Function Attrs: nofree nounwind memory(readwrite, inaccessiblemem: read) uwtable
define hidden ptr @evdns_tree_SPLAY_INSERT(ptr noundef captures(none) %0, ptr noundef %1) local_unnamed_addr #10 {
  %3 = load ptr, ptr %0, align 8
  %4 = icmp eq ptr %3, null
  br i1 %4, label %5, label %6

5:                                                ; preds = %2
  tail call void @llvm.memset.p0.i64(ptr noundef nonnull align 8 dereferenceable(16) %1, i8 0, i64 16, i1 false)
  br label %.thread

6:                                                ; preds = %2
  tail call void @evdns_tree_SPLAY(ptr noundef nonnull %0, ptr noundef %1)
  %7 = load ptr, ptr %0, align 8
  %8 = getelementptr i8, ptr %1, i64 16
  %.val = load ptr, ptr %8, align 8
  %9 = getelementptr i8, ptr %7, i64 16
  %.val25 = load ptr, ptr %9, align 8
  %10 = tail call i32 @strcasecmp(ptr noundef readonly %.val, ptr noundef readonly %.val25) #23
  %11 = icmp slt i32 %10, 0
  br i1 %11, label %12, label %16

12:                                               ; preds = %6
  %13 = load ptr, ptr %7, align 8
  store ptr %13, ptr %1, align 8
  %14 = load ptr, ptr %0, align 8
  %15 = getelementptr inbounds nuw i8, ptr %1, i64 8
  store ptr %14, ptr %15, align 8
  store ptr null, ptr %14, align 8
  br label %.thread

16:                                               ; preds = %6
  %.not = icmp eq i32 %10, 0
  br i1 %.not, label %23, label %17

17:                                               ; preds = %16
  %18 = getelementptr inbounds nuw i8, ptr %7, i64 8
  %19 = load ptr, ptr %18, align 8
  %20 = getelementptr inbounds nuw i8, ptr %1, i64 8
  store ptr %19, ptr %20, align 8
  %21 = load ptr, ptr %0, align 8
  store ptr %21, ptr %1, align 8
  %22 = getelementptr inbounds nuw i8, ptr %21, i64 8
  store ptr null, ptr %22, align 8
  br label %.thread

.thread:                                          ; preds = %12, %17, %5
  store ptr %1, ptr %0, align 8
  br label %23

23:                                               ; preds = %16, %.thread
  %.1 = phi ptr [ null, %.thread ], [ %7, %16 ]
  ret ptr %.1
}